target datalayout = "e-m:e-p270:32:32-p271:32:32-p272:64:64-i64:64-i128:128-f80:128-n8:16:32:64-S128"
target triple = "x86_64-pc-linux-gnu"

; Function Attrs: nounwind uwtable
define internal void @Abc_SelectSortInc(ptr noundef %0, i32 noundef %1) #0 {
  %3 = alloca ptr, align 8
  %4 = alloca i32, align 4
  %5 = alloca i32, align 4
  %6 = alloca i32, align 4
  %7 = alloca i32, align 4
  %8 = alloca i64, align 8
  store ptr %0, ptr %3, align 8
  store i32 %1, ptr %4, align 4
  store i32 0, ptr %5, align 4
  br label %9

9:                                                ; preds = %62, %2
  %10 = load i32, ptr %5, align 4
  %11 = load i32, ptr %4, align 4
  %12 = sub nsw i32 %11, 1
  %13 = icmp slt i32 %10, %12
  br i1 %13, label %14, label %65

14:                                               ; preds = %9
  %15 = load i32, ptr %5, align 4
  store i32 %15, ptr %7, align 4
  %16 = load i32, ptr %5, align 4
  %17 = add nsw i32 %16, 1
  store i32 %17, ptr %6, align 4
  br label %18

18:                                               ; preds = %39, %14
  %19 = load i32, ptr %6, align 4
  %20 = load i32, ptr %4, align 4
  %21 = icmp slt i32 %19, %20
  br i1 %21, label %22, label %42

22:                                               ; preds = %18
  %23 = load ptr, ptr %3, align 8
  %24 = load i32, ptr %6, align 4
  %25 = sext i32 %24 to i64
  %26 = getelementptr inbounds i64, ptr %23, i64 %25
  %27 = load i64, ptr %26, align 8
  %28 = trunc i64 %27 to i32
  %29 = load ptr, ptr %3, align 8
  %30 = load i32, ptr %7, align 4
  %31 = sext i32 %30 to i64
  %32 = getelementptr inbounds i64, ptr %29, i64 %31
  %33 = load i64, ptr %32, align 8
  %34 = trunc i64 %33 to i32
  %35 = icmp ult i32 %28, %34
  br i1 %35, label %36, label %38

36:                                               ; preds = %22
  %37 = load i32, ptr %6, align 4
  store i32 %37, ptr %7, align 4
  br label %38

38:                                               ; preds = %36, %22
  br label %39

39:                                               ; preds = %38
  %40 = load i32, ptr %6, align 4
  %41 = add nsw i32 %40, 1
  store i32 %41, ptr %6, align 4
  br label %18, !llvm.loop !35

42:                                               ; preds = %18
  %43 = load ptr, ptr %3, align 8
  %44 = load i32, ptr %5, align 4
  %45 = sext i32 %44 to i64
  %46 = getelementptr inbounds i64, ptr %43, i64 %45
  %47 = load i64, ptr %46, align 8
  store i64 %47, ptr %8, align 8
  %48 = load ptr, ptr %3, align 8
  %49 = load i32, ptr %7, align 4
  %50 = sext i32 %49 to i64
  %51 = getelementptr inbounds i64, ptr %48, i64 %50
  %52 = load i64, ptr %51, align 8
  %53 = load ptr, ptr %3, align 8
  %54 = load i32, ptr %5, align 4
  %55 = sext i32 %54 to i64
  %56 = getelementptr inbounds i64, ptr %53, i64 %55
  store i64 %52, ptr %56, align 8
  %57 = load i64, ptr %8, align 8
  %58 = load ptr, ptr %3, align 8
  %59 = load i32, ptr %7, align 4
  %60 = sext i32 %59 to i64
  %61 = getelementptr inbounds i64, ptr %58, i64 %60
  store i64 %57, ptr %61, align 8
  br label %62

62:                                               ; preds = %42
  %63 = load i32, ptr %5, align 4
  %64 = add nsw i32 %63, 1
  store i32 %64, ptr %5, align 4
  br label %9, !llvm.loop !36

65:                                               ; preds = %9
  ret void
}

; Function Attrs: nounwind uwtable
define void @Abc_QuickSort2Inc_rec(ptr noundef %0, i32 noundef %1, i32 noundef %2) #0 {
  %4 = alloca ptr, align 8
  %5 = alloca i32, align 4
  %6 = alloca i32, align 4
  %7 = alloca i64, align 8
  %8 = alloca i32, align 4
  %9 = alloca i32, align 4
  %10 = alloca i64, align 8
  %11 = alloca i64, align 8
  store ptr %0, ptr %4, align 8
  store i32 %1, ptr %5, align 4
  store i32 %2, ptr %6, align 4
  %12 = load ptr, ptr %4, align 8
  %13 = load i32, ptr %6, align 4
  %14 = sext i32 %13 to i64
  %15 = getelementptr inbounds i64, ptr %12, i64 %14
  %16 = load i64, ptr %15, align 8
  store i64 %16, ptr %7, align 8
  %17 = load i32, ptr %5, align 4
  %18 = sub nsw i32 %17, 1
  store i32 %18, ptr %8, align 4
  %19 = load i32, ptr %6, align 4
  store i32 %19, ptr %9, align 4
  %20 = load i32, ptr %5, align 4
  %21 = load i32, ptr %6, align 4
  %22 = icmp sge i32 %20, %21
  br i1 %22, label %23, label %24

23:                                               ; preds = %3
  br label %123

24:                                               ; preds = %3
  %25 = load i32, ptr %6, align 4
  %26 = load i32, ptr %5, align 4
  %27 = sub nsw i32 %25, %26
  %28 = icmp slt i32 %27, 10
  br i1 %28, label %29, label %38

29:                                               ; preds = %24
  %30 = load ptr, ptr %4, align 8
  %31 = load i32, ptr %5, align 4
  %32 = sext i32 %31 to i64
  %33 = getelementptr inbounds i64, ptr %30, i64 %32
  %34 = load i32, ptr %6, align 4
  %35 = load i32, ptr %5, align 4
  %36 = sub nsw i32 %34, %35
  %37 = add nsw i32 %36, 1
  call void @Abc_SelectSortInc(ptr noundef %33, i32 noundef %37)
  br label %123

38:                                               ; preds = %24
  br label %39

39:                                               ; preds = %75, %38
  br label %40

40:                                               ; preds = %51, %39
  %41 = load ptr, ptr %4, align 8
  %42 = load i32, ptr %8, align 4
  %43 = add nsw i32 %42, 1
  store i32 %43, ptr %8, align 4
  %44 = sext i32 %43 to i64
  %45 = getelementptr inbounds i64, ptr %41, i64 %44
  %46 = load i64, ptr %45, align 8
  %47 = trunc i64 %46 to i32
  %48 = load i64, ptr %7, align 8
  %49 = trunc i64 %48 to i32
  %50 = icmp ult i32 %47, %49
  br i1 %50, label %51, label %52

51:                                               ; preds = %40
  br label %40, !llvm.loop !33

52:                                               ; preds = %40
  br label %53

53:                                               ; preds = %69, %52
  %54 = load i64, ptr %7, align 8
  %55 = trunc i64 %54 to i32
  %56 = load ptr, ptr %4, align 8
  %57 = load i32, ptr %9, align 4
  %58 = add nsw i32 %57, -1
  store i32 %58, ptr %9, align 4
  %59 = sext i32 %58 to i64
  %60 = getelementptr inbounds i64, ptr %56, i64 %59
  %61 = load i64, ptr %60, align 8
  %62 = trunc i64 %61 to i32
  %63 = icmp ult i32 %55, %62
  br i1 %63, label %64, label %70

64:                                               ; preds = %53
  %65 = load i32, ptr %9, align 4
  %66 = load i32, ptr %5, align 4
  %67 = icmp eq i32 %65, %66
  br i1 %67, label %68, label %69

68:                                               ; preds = %64
  br label %70

69:                                               ; preds = %64
  br label %53, !llvm.loop !34

70:                                               ; preds = %68, %53
  %71 = load i32, ptr %8, align 4
  %72 = load i32, ptr %9, align 4
  %73 = icmp sge i32 %71, %72
  br i1 %73, label %74, label %75

74:                                               ; preds = %70
  br label %95

75:                                               ; preds = %70
  %76 = load ptr, ptr %4, align 8
  %77 = load i32, ptr %8, align 4
  %78 = sext i32 %77 to i64
  %79 = getelementptr inbounds i64, ptr %76, i64 %78
  %80 = load i64, ptr %79, align 8
  store i64 %80, ptr %10, align 8
  %81 = load ptr, ptr %4, align 8
  %82 = load i32, ptr %9, align 4
  %83 = sext i32 %82 to i64
  %84 = getelementptr inbounds i64, ptr %81, i64 %83
  %85 = load i64, ptr %84, align 8
  %86 = load ptr, ptr %4, align 8
  %87 = load i32, ptr %8, align 4
  %88 = sext i32 %87 to i64
  %89 = getelementptr inbounds i64, ptr %86, i64 %88
  store i64 %85, ptr %89, align 8
  %90 = load i64, ptr %10, align 8
  %91 = load ptr, ptr %4, align 8
  %92 = load i32, ptr %9, align 4
  %93 = sext i32 %92 to i64
  %94 = getelementptr inbounds i64, ptr %91, i64 %93
  store i64 %90, ptr %94, align 8
  br label %39

95:                                               ; preds = %74
  %96 = load ptr, ptr %4, align 8
  %97 = load i32, ptr %8, align 4
  %98 = sext i32 %97 to i64
  %99 = getelementptr inbounds i64, ptr %96, i64 %98
  %100 = load i64, ptr %99, align 8
  store i64 %100, ptr %11, align 8
  %101 = load ptr, ptr %4, align 8
  %102 = load i32, ptr %6, align 4
  %103 = sext i32 %102 to i64
  %104 = getelementptr inbounds i64, ptr %101, i64 %103
  %105 = load i64, ptr %104, align 8
  %106 = load ptr, ptr %4, align 8
  %107 = load i32, ptr %8, align 4
  %108 = sext i32 %107 to i64
  %109 = getelementptr inbounds i64, ptr %106, i64 %108
  store i64 %105, ptr %109, align 8
  %110 = load i64, ptr %11, align 8
  %111 = load ptr, ptr %4, align 8
  %112 = load i32, ptr %6, align 4
  %113 = sext i32 %112 to i64
  %114 = getelementptr inbounds i64, ptr %111, i64 %113
  store i64 %110, ptr %114, align 8
  %115 = load ptr, ptr %4, align 8
  %116 = load i32, ptr %5, align 4
  %117 = load i32, ptr %8, align 4
  %118 = sub nsw i32 %117, 1
  call void @Abc_QuickSort2Inc_rec(ptr noundef %115, i32 noundef %116, i32 noundef %118)
  %119 = load ptr, ptr %4, align 8
  %120 = load i32, ptr %8, align 4
  %121 = add nsw i32 %120, 1
  %122 = load i32, ptr %6, align 4
  call void @Abc_QuickSort2Inc_rec(ptr noundef %119, i32 noundef %121, i32 noundef %122)
  br label %123

123:                                              ; preds = %95, %29, %23
  ret void
}